(dp0
I1920
(dp1
S'va'
p2
(dp3
S'Richmond'
p4
(lp5
S'riva'
p6
asS'Norfolk'
p7
(lp8
S'nova'
p9
assS'co'
p10
(dp11
S'Pueblo'
p12
(lp13
S'puco'
p14
asS'Denver'
p15
(lp16
S'deco'
p17
assS'ca'
p18
(dp19
S'LosAngeles'
p20
(lp21
S'laca'
p22
asS'SanFrancisco'
p23
(lp24
S'sfca'
p25
asS'SanDiego'
p26
(lp27
S'sdca'
p28
asS'Sacramento'
p29
(lp30
S'scca'
p31
asS'SanJose'
p32
(lp33
S'sjca'
p34
asS'Pasadena'
p35
(lp36
S'paca'
p37
asS'Berkeley'
p38
(lp39
S'beca'
p40
asS'Glendale'
p41
(lp42
S'glca'
p43
asS'Oakland'
p44
(lp45
S'oaca'
p46
asS'LongBeach'
p47
(lp48
S'lbca'
p49
assS'al'
p50
(dp51
S'Mobile'
p52
(lp53
S'moal'
p54
asS'Birmingham'
p55
(lp56
S'bial'
p57
asS'Montgomery'
p58
(lp59
S'mnal'
p60
assS'ar'
p61
(dp62
S'LittleRock'
p63
(lp64
S'lrar'
p65
assS'il'
p66
(dp67
S'Rockford'
p68
(lp69
S'roil'
p70
asS'EastStLouis'
p71
(lp72
S'esil'
p73
asS'Chicago'
p74
(lp75
S'chil'
p76
asS'Aurora'
p77
(lp78
S'auil'
p79
asS'Cicero'
p80
(lp81
S'ciil'
p82
asS'Evanston'
p83
(lp84
S'evil'
p85
asS'Joliet'
p86
(lp87
S'joil'
p88
asS'OakPark'
p89
(lp90
S'opil'
p91
asS'Peoria'
p92
(lp93
S'peil'
p94
asS'Springfield'
p95
(lp96
S'spil'
p97
asS'Quincy'
p98
(lp99
S'quil'
p100
assS'ga'
p101
(dp102
S'Savannah'
p103
(lp104
S'saga'
p105
asS'Atlanta'
p106
(lp107
S'a1ga'
p108
aS'a2ga'
p109
asS'Augusta'
p110
(lp111
S'auga'
p112
assS'in'
p113
(dp114
S'Indianapolis'
p115
(lp116
S'inin'
p117
asS'FortWayne'
p118
(lp119
S'fwin'
p120
asS'Hammond'
p121
(lp122
S'hain'
p123
asS'SouthBend'
p124
(lp125
S'sbin'
p126
asS'Gary'
p127
(lp128
S'gain'
p129
asS'Evansville'
p130
(lp131
S'evin'
p132
asS'TerreHaute'
p133
(lp134
S'thin'
p135
assS'ia'
p136
(dp137
S'DesMoines'
p138
(lp139
S'dmia'
p140
asS'SiouxCity'
p141
(lp142
S'siia'
p143
asS'Davenport'
p144
(lp145
S'daia'
p146
asS'Dubuque'
p147
(lp148
S'duia'
p149
assS'az'
p150
(dp151
S'Phoenix'
p152
(lp153
S'phaz'
p154
assS'ct'
p155
(dp156
S'Bridgeport'
p157
(lp158
S'brct'
p159
asS'Waterbury'
p160
(lp161
S'wact'
p162
asS'Hartford'
p163
(lp164
S'hact'
p165
aS'wrct'
p166
asS'Meriden'
p167
(lp168
S'mect'
p169
asS'NewBritain'
p170
(lp171
S'nbct'
p172
asS'NewHaven'
p173
(lp174
S'nhct'
p175
assS'nh'
p176
(dp177
S'Manchester'
p178
(lp179
S'manh'
p180
assS'nj'
p181
(dp182
S'Trenton'
p183
(lp184
S'trnj'
p185
asS'AtlanticCity'
p186
(lp187
S'acnj'
p188
asS'JerseyCity'
p189
(lp190
S'jcnj'
p191
asS'Bayonne'
p192
(lp193
S'banj'
p194
asS'Passaic'
p195
(lp196
S'psnj'
p197
asS'Newark'
p198
(lp199
S'nenj'
p200
asS'Camden'
p201
(lp202
S'canj'
p203
asS'Paterson'
p204
(lp205
S'panj'
p206
asS'Hoboken'
p207
(lp208
S'honj'
p209
asS'EastOrange'
p210
(lp211
S'eonj'
p212
asS'Elizabeth'
p213
(lp214
S'elnj'
p215
assS'tx'
p216
(dp217
S'Galveston'
p218
(lp219
S'gatx'
p220
asS'Houston'
p221
(lp222
S'hotx'
p223
asS'Dallas'
p224
(lp225
S'datx'
p226
asS'SanAntonio'
p227
(lp228
S'satx'
p229
asS'ElPaso'
p230
(lp231
S'eptx'
p232
asS'FortWorth'
p233
(lp234
S'fwtx'
p235
asS'Austin'
p236
(lp237
S'autx'
p238
assS'la'
p239
(dp240
S'Shreveport'
p241
(lp242
S'shla'
p243
asS'NewOrleans'
p244
(lp245
S'nola'
p246
assS'nc'
p247
(dp248
S'Winston-Salem'
p249
(lp250
sS'Charlotte'
p251
(lp252
S'chnc'
p253
assS'ne'
p254
(dp255
S'Lincoln'
p256
(lp257
S'line'
p258
asS'Omaha'
p259
(lp260
S'omne'
p261
assS'tn'
p262
(dp263
S'Chattanooga'
p264
(lp265
S'chtn'
p266
asS'Knoxville'
p267
(lp268
S'kntn'
p269
asS'Memphis'
p270
(lp271
S'metn'
p272
asS'Nashville'
p273
(lp274
S'natn'
p275
assS'ny'
p276
(dp277
S'StatenIsland'
p278
(lp279
S'riny'
p280
asS'Albany'
p281
(lp282
S'alny'
p283
asS'Rochester'
p284
(lp285
S'rony'
p286
asS'NewYork'
p287
(lp288
sS'Poughkeepsie'
p289
(lp290
S'pony'
p291
asS'MountVernon'
p292
(lp293
sS'Brooklyn'
p294
(lp295
S'bkny'
p296
asS'Manhattan'
p297
(lp298
S'many'
p299
asS'Auburn'
p300
(lp301
S'auny'
p302
asS'Elmira'
p303
(lp304
S'elny'
p305
asS'Yonkers'
p306
(lp307
S'yony'
p308
asS'Troy'
p309
(lp310
S'trny'
p311
asS'NiagaraFalls'
p312
(lp313
S'nfny'
p314
asS'Binghamton'
p315
(lp316
S'biny'
p317
asS'Utica'
p318
(lp319
S'utny'
p320
asS'Bronx'
p321
(lp322
S'bxny'
p323
asS'Queens'
p324
(lp325
S'quny'
p326
asS'Buffalo'
p327
(lp328
S'buny'
p329
asS'Schenectady'
p330
(lp331
S'scny'
p332
asS'Syracuse'
p333
(lp334
S'syny'
p335
assS'pa'
p336
(dp337
S'Lancaster'
p338
(lp339
S'lapa'
p340
asS'Reading'
p341
(lp342
S'repa'
p343
asS'Pittsburgh'
p344
(lp345
S'pipa'
p346
asS'Allentown'
p347
(lp348
S'alpa'
p349
asS'Philadelphia'
p350
(lp351
S'phpa'
p352
asS'McKeesport'
p353
(lp354
S'mcpa'
p355
asS'Harrisburg'
p356
(lp357
S'hapa'
p358
asS'Altoona'
p359
(lp360
S'atpa'
p361
asS'Wilkes-Barre'
p362
(lp363
S'wipa'
p364
asS'Chester'
p365
(lp366
S'chpa'
p367
asS'NewCastle'
p368
(lp369
S'ncpa'
p370
asS'Scranton'
p371
(lp372
S'scpa'
p373
asS'Erie'
p374
(lp375
S'erpa'
p376
asS'Williamsport'
p377
(lp378
S'wlpa'
p379
asS'York'
p380
(lp381
S'yopa'
p382
asS'Johnstown'
p383
(lp384
S'jopa'
p385
assS'ri'
p386
(dp387
S'Woonsocket'
p388
(lp389
S'wori'
p390
asS'Providence'
p391
(lp392
S'epri'
p393
aS'prri'
p394
asS'Pawtucket'
p395
(lp396
S'pari'
p397
assS'wa'
p398
(dp399
S'Seattle'
p400
(lp401
S'sewa'
p402
asS'Spokane'
p403
(lp404
S'spwa'
p405
asS'Tacoma'
p406
(lp407
S'tawa'
p408
assS'de'
p409
(dp410
S'Wilmington'
p411
(lp412
S'wide'
p413
assS'dc'
p414
(dp415
S'Washington'
p416
(lp417
S'wadc'
p418
assS'wi'
p419
(dp420
S'LaCrosse'
p421
(lp422
sS'Superior'
p423
(lp424
S'suwi'
p425
asS'Madison'
p426
(lp427
S'mawi'
p428
asS'Oshkosh'
p429
(lp430
S'oswi'
p431
asS'Milwaukee'
p432
(lp433
S'miwi'
p434
asS'Racine'
p435
(lp436
S'rawi'
p437
assS'wv'
p438
(dp439
S'Charleston'
p440
(lp441
S'chwv'
p442
asS'Huntington'
p443
(lp444
S'huwv'
p445
assS'ok'
p446
(dp447
S'Tulsa'
p448
(lp449
S'tuok'
p450
asS'OklahomaCity'
p451
(lp452
S'ocok'
p453
assS'fl'
p454
(dp455
S'Miami'
p456
(lp457
S'mifl'
p458
asS'Jacksonville'
p459
(lp460
S'jafl'
p461
asS'Tampa'
p462
(lp463
S'tafl'
p464
assS'me'
p465
(dp466
S'Portland'
p467
(lp468
S'pome'
p469
assS'md'
p470
(dp471
S'Baltimore'
p472
(lp473
S'bamd'
p474
assS'ma'
p475
(dp476
S'Lowell'
p477
(lp478
S'loma'
p479
asS'Lynn'
p480
(lp481
S'lyma'
p482
asS'Cambridge'
p483
(lp484
S'cama'
p485
asS'Quincy'
p486
(lp487
S'quma'
p488
asS'Springfield'
p489
(lp490
S'spma'
p491
asS'Lawrence'
p492
(lp493
S'lama'
p494
asS'Taunton'
p495
(lp496
S'tama'
p497
asS'Boston'
p498
(lp499
S'boma'
p500
asS'Newton'
p501
(lp502
S'nema'
p503
asS'Haverhill'
p504
(lp505
S'hama'
p506
asS'Worcester'
p507
(lp508
S'woma'
p509
asS'Holyoke'
p510
(lp511
S'homa'
p512
asS'Salem'
p513
(lp514
S'sama'
p515
asS'Malden'
p516
(lp517
S'mama'
p518
asS'FallRiver'
p519
(lp520
S'frma'
p521
asS'Brockton'
p522
(lp523
S'bcma'
p524
asS'Somerville'
p525
(lp526
S'soma'
p527
asS'Fitchburg'
p528
(lp529
S'fima'
p530
asS'Chelsea'
p531
(lp532
S'chma'
p533
asS'NewBedford'
p534
(lp535
S'nbma'
p536
assS'oh'
p537
(dp538
S'Columbus'
p539
(lp540
S'cooh'
p541
asS'Cincinnati'
p542
(lp543
S'cioh'
p544
asS'Lakewood'
p545
(lp546
S'laoh'
p547
asS'Dayton'
p548
(lp549
S'daoh'
p550
asS'Toledo'
p551
(lp552
S'tooh'
p553
asS'Canton'
p554
(lp555
S'caoh'
p556
asS'Youngstown'
p557
(lp558
S'yooh'
p559
asS'Cleveland'
p560
(lp561
S'cloh'
p562
aS'choh'
p563
aS'ecoh'
p564
asS'Akron'
p565
(lp566
S'akoh'
p567
asS'Springfield'
p568
(lp569
S'spoh'
p570
assS'ut'
p571
(dp572
S'SaltLakeCity'
p573
(lp574
S'slut'
p575
assS'mo'
p576
(dp577
S'StLouis'
p578
(lp579
S'slmo'
p580
asS'Joplin'
p581
(lp582
S'j1mo'
p583
aS'j2mo'
p584
asS'StJoseph'
p585
(lp586
S'sjmo'
p587
asS'KansasCity'
p588
(lp589
S'kcmo'
p590
assS'mn'
p591
(dp592
S'StPaul'
p593
(lp594
S'spmn'
p595
asS'Duluth'
p596
(lp597
S'dumn'
p598
asS'Minneapolis'
p599
(lp600
S'mimn'
p601
assS'mi'
p602
(dp603
S'Pontiac'
p604
(lp605
S'pomi'
p606
asS'Detroit'
p607
(lp608
S'demi'
p609
asS'Lansing'
p610
(lp611
S'lami'
p612
asS'Flint'
p613
(lp614
S'flmi'
p615
asS'GrandRapids'
p616
(lp617
S'grmi'
p618
asS'BayCity'
p619
(lp620
S'bcmi'
p621
asS'Saginaw'
p622
(lp623
S'sami'
p624
assS'ks'
p625
(dp626
S'Wichita'
p627
(lp628
S'wiks'
p629
asS'KansasCity'
p630
(lp631
S'kcks'
p632
asS'Topeka'
p633
(lp634
S'toks'
p635
assS'mt'
p636
(dp637
S'Butte'
p638
(lp639
S'bumt'
p640
assS'sc'
p641
(dp642
S'Charleston'
p643
(lp644
S'chsc'
p645
assS'ky'
p646
(dp647
S'Covington'
p648
(lp649
S'coky'
p650
asS'Newport'
p651
(lp652
S'neky'
p653
asS'Louisville'
p654
(lp655
S'luky'
p656
assS'or'
p657
(dp658
S'Portland'
p659
(lp660
S'poor'
p661
asssI1940
(dp662
g2
(dp663
g4
(lp664
S'riva'
p665
asg7
(lp666
S'nova'
p667
assg10
(dp668
g12
(lp669
S'puco'
p670
asg15
(lp671
S'deco'
p672
assg18
(dp673
S'LosAngeles'
p674
(lp675
S'laca'
p676
asS'SanFrancisco'
p677
(lp678
S'sfca'
p679
asS'SanDiego'
p680
(lp681
S'sdca'
p682
asg29
(lp683
S'scca'
p684
asS'SanJose'
p685
(lp686
S'sjca'
p687
asg35
(lp688
S'paca'
p689
aS's5ca'
p690
asg38
(lp691
S'beca'
p692
asg41
(lp693
S'glca'
p694
asg44
(lp695
S'oaca'
p696
asS'LongBeach'
p697
(lp698
S'lbca'
p699
assg50
(dp700
g52
(lp701
S'moal'
p702
asg55
(lp703
S'bial'
p704
asg58
(lp705
S'mnal'
p706
assg61
(dp707
S'LittleRock'
p708
(lp709
S'lrar'
p710
assg66
(dp711
g68
(lp712
S'roil'
p713
asS'EastStLouis'
p714
(lp715
S'esil'
p716
asg74
(lp717
S'chil'
p718
aS'ceil'
p719
aS'ncil'
p720
asg77
(lp721
S'auil'
p722
asg80
(lp723
S'ciil'
p724
asg83
(lp725
S'evil'
p726
asg86
(lp727
S'joil'
p728
asS'OakPark'
p729
(lp730
S'opil'
p731
asg92
(lp732
S'peil'
p733
asg95
(lp734
S'spil'
p735
asg98
(lp736
S'quil'
p737
assg101
(dp738
g103
(lp739
S'saga'
p740
asg106
(lp741
S'atga'
p742
asg110
(lp743
S'auga'
p744
assg113
(dp745
g115
(lp746
S'inin'
p747
asS'FortWayne'
p748
(lp749
S'fwin'
p750
asg121
(lp751
S'hain'
p752
asS'SouthBend'
p753
(lp754
S'sbin'
p755
asg127
(lp756
S'gain'
p757
asg130
(lp758
S'evin'
p759
asS'TerreHaute'
p760
(lp761
S'thin'
p762
assg136
(dp763
S'DesMoines'
p764
(lp765
S'dmia'
p766
asS'SiouxCity'
p767
(lp768
S'scia'
p769
asg144
(lp770
S'daia'
p771
asg147
(lp772
S'duia'
p773
assg150
(dp774
g152
(lp775
S'phaz'
p776
assg155
(dp777
g157
(lp778
S'brct'
p779
asg160
(lp780
S'wact'
p781
asg163
(lp782
S'ehct'
p783
aS'hact'
p784
aS'wrct'
p785
asg167
(lp786
S'mect'
p787
asS'NewBritain'
p788
(lp789
S'nbct'
p790
asS'NewHaven'
p791
(lp792
S'nhct'
p793
assg176
(dp794
g178
(lp795
S'manh'
p796
assg181
(dp797
g183
(lp798
S'trnj'
p799
asS'AtlanticCity'
p800
(lp801
S'acnj'
p802
asS'JerseyCity'
p803
(lp804
S'jcnj'
p805
asg192
(lp806
S'banj'
p807
asg195
(lp808
S'psnj'
p809
asg198
(lp810
S'nenj'
p811
asg201
(lp812
S'canj'
p813
asg204
(lp814
S'panj'
p815
asg207
(lp816
S'honj'
p817
asS'EastOrange'
p818
(lp819
S'eonj'
p820
asg213
(lp821
S'elnj'
p822
assg216
(dp823
g218
(lp824
S'gatx'
p825
asg221
(lp826
S'hotx'
p827
asg224
(lp828
S'datx'
p829
asS'SanAntonio'
p830
(lp831
S'satx'
p832
asS'ElPaso'
p833
(lp834
S'eptx'
p835
asS'FortWorth'
p836
(lp837
S'fwtx'
p838
asg236
(lp839
S'autx'
p840
assg239
(dp841
g241
(lp842
S'shla'
p843
asS'NewOrleans'
p844
(lp845
S'nola'
p846
assg247
(dp847
g249
(lp848
S'wsnc'
p849
asg251
(lp850
S'chnc'
p851
assg254
(dp852
g256
(lp853
S'line'
p854
asg259
(lp855
S'omne'
p856
assg262
(dp857
g264
(lp858
S'chtn'
p859
asg267
(lp860
S'kntn'
p861
asg270
(lp862
S'metn'
p863
asg273
(lp864
S'natn'
p865
assg276
(dp866
S'StatenIsland'
p867
(lp868
S'riny'
p869
asg281
(lp870
S'alny'
p871
asg284
(lp872
S'rony'
p873
asS'NewYork'
p874
(lp875
sg289
(lp876
S'pony'
p877
asS'MountVernon'
p878
(lp879
S'mvny'
p880
asg294
(lp881
S'bkny'
p882
asg297
(lp883
S'many'
p884
asg300
(lp885
S'auny'
p886
asg303
(lp887
S'elny'
p888
asg306
(lp889
S'yony'
p890
asg309
(lp891
S'trny'
p892
asS'NiagaraFalls'
p893
(lp894
S'niny'
p895
asg315
(lp896
S'biny'
p897
asg318
(lp898
S'utny'
p899
asg321
(lp900
S'bxny'
p901
asg324
(lp902
S'quny'
p903
asg327
(lp904
S'buny'
p905
asg330
(lp906
S'scny'
p907
asg333
(lp908
S'syny'
p909
assg336
(dp910
g338
(lp911
S'lapa'
p912
asg341
(lp913
S'repa'
p914
asg344
(lp915
S'pipa'
p916
asg347
(lp917
S'alpa'
p918
asg350
(lp919
S'phpa'
p920
asg353
(lp921
S'mcpa'
p922
asg356
(lp923
S'hapa'
p924
asg359
(lp925
S'atpa'
p926
asg362
(lp927
S'wbpa'
p928
asg365
(lp929
S'chpa'
p930
aS'wcpa'
p931
asS'NewCastle'
p932
(lp933
S'ncpa'
p934
asg371
(lp935
S'scpa'
p936
asg374
(lp937
S'erpa'
p938
asg377
(lp939
S'wlpa'
p940
asg380
(lp941
S'yopa'
p942
asg383
(lp943
S'jopa'
p944
assg386
(dp945
g388
(lp946
S'wori'
p947
asg391
(lp948
S'epri'
p949
aS'prri'
p950
asg395
(lp951
S'pari'
p952
assg398
(dp953
g400
(lp954
S'sewa'
p955
asg403
(lp956
S'spwa'
p957
asg406
(lp958
S'tawa'
p959
assg409
(dp960
g411
(lp961
S'wide'
p962
assg414
(dp963
g416
(lp964
S'wadc'
p965
assg419
(dp966
g421
(lp967
sg423
(lp968
S'suwi'
p969
asg426
(lp970
S'mawi'
p971
asg429
(lp972
S'oswi'
p973
asg432
(lp974
S'miwi'
p975
aS'smwi'
p976
asg435
(lp977
S'rawi'
p978
assg438
(dp979
g440
(lp980
S'chwv'
p981
asg443
(lp982
S'h1wv'
p983
aS'h2wv'
p984
assg446
(dp985
g448
(lp986
S'tuok'
p987
asS'OklahomaCity'
p988
(lp989
S'ocok'
p990
assg454
(dp991
g456
(lp992
S'mifl'
p993
aS'mbfl'
p994
asg459
(lp995
S'jafl'
p996
asg462
(lp997
S'tafl'
p998
assg465
(dp999
g467
(lp1000
S'pome'
p1001
aS'spme'
p1002
assg470
(dp1003
g472
(lp1004
S'bamd'
p1005
assg475
(dp1006
g477
(lp1007
S'loma'
p1008
asg480
(lp1009
S'lyma'
p1010
asg483
(lp1011
S'cama'
p1012
asg486
(lp1013
S'quma'
p1014
asg489
(lp1015
S'spma'
p1016
aS'wpma'
p1017
asg492
(lp1018
S'lama'
p1019
asg495
(lp1020
S'tama'
p1021
asg498
(lp1022
S'boma'
p1023
asg501
(lp1024
S'nema'
p1025
asg504
(lp1026
S'hama'
p1027
asg507
(lp1028
S'woma'
p1029
asg510
(lp1030
S'homa'
p1031
asg513
(lp1032
S'sama'
p1033
asg516
(lp1034
S'mama'
p1035
asS'FallRiver'
p1036
(lp1037
S'frma'
p1038
asg522
(lp1039
S'bcma'
p1040
asg525
(lp1041
S'soma'
p1042
asg528
(lp1043
S'fima'
p1044
asg531
(lp1045
S'chma'
p1046
asS'NewBedford'
p1047
(lp1048
S'nbma'
p1049
assg537
(dp1050
g539
(lp1051
S'cooh'
p1052
asg542
(lp1053
S'cioh'
p1054
asg545
(lp1055
S'laoh'
p1056
asg548
(lp1057
S'daoh'
p1058
asg551
(lp1059
S'tooh'
p1060
asg554
(lp1061
S'caoh'
p1062
asg557
(lp1063
S'yooh'
p1064
asg560
(lp1065
S'cloh'
p1066
aS'choh'
p1067
aS'ecoh'
p1068
asg565
(lp1069
S'akoh'
p1070
asg568
(lp1071
S'spoh'
p1072
assg571
(dp1073
S'SaltLakeCity'
p1074
(lp1075
S'slut'
p1076
assg576
(dp1077
S'StLouis'
p1078
(lp1079
S'slmo'
p1080
asg581
(lp1081
S'j1mo'
p1082
aS'j2mo'
p1083
asS'StJoseph'
p1084
(lp1085
S'sjmo'
p1086
asS'KansasCity'
p1087
(lp1088
S'kcmo'
p1089
assg591
(dp1090
S'StPaul'
p1091
(lp1092
S'spmn'
p1093
asg596
(lp1094
S'dumn'
p1095
asg599
(lp1096
S'mimn'
p1097
assg602
(dp1098
g604
(lp1099
S'pomi'
p1100
asg607
(lp1101
S'demi'
p1102
aS'edmi'
p1103
asg610
(lp1104
S'lami'
p1105
asg613
(lp1106
S'flmi'
p1107
asS'GrandRapids'
p1108
(lp1109
S'grmi'
p1110
asS'BayCity'
p1111
(lp1112
S'bcmi'
p1113
asg622
(lp1114
S'sami'
p1115
assg625
(dp1116
g627
(lp1117
S'wiks'
p1118
asS'KansasCity'
p1119
(lp1120
S'kcks'
p1121
asg633
(lp1122
S'toks'
p1123
assg636
(dp1124
g638
(lp1125
S'bumt'
p1126
assg641
(dp1127
g643
(lp1128
S'chsc'
p1129
assg646
(dp1130
g648
(lp1131
S'coky'
p1132
asg651
(lp1133
S'neky'
p1134
asg654
(lp1135
S'loky'
p1136
assg657
(dp1137
g659
(lp1138
S'poor'
p1139
asssI1930
(dp1140
g2
(dp1141
g4
(lp1142
S'riva'
p1143
asg7
(lp1144
S'nova'
p1145
assg10
(dp1146
g12
(lp1147
S'puco'
p1148
asg15
(lp1149
S'deco'
p1150
assg18
(dp1151
S'LosAngeles'
p1152
(lp1153
S'laca'
p1154
asS'SanFrancisco'
p1155
(lp1156
S'sfca'
p1157
asS'SanDiego'
p1158
(lp1159
S'sdca'
p1160
asg29
(lp1161
S'scca'
p1162
asS'SanJose'
p1163
(lp1164
S'sjca'
p1165
asg35
(lp1166
S'paca'
p1167
asg38
(lp1168
S'beca'
p1169
asg41
(lp1170
S'glca'
p1171
asg44
(lp1172
S'oaca'
p1173
asS'LongBeach'
p1174
(lp1175
S'lbca'
p1176
assg50
(dp1177
g52
(lp1178
S'moal'
p1179
asg55
(lp1180
S'bial'
p1181
asg58
(lp1182
S'mnal'
p1183
assg61
(dp1184
S'LittleRock'
p1185
(lp1186
S'lrar'
p1187
assg66
(dp1188
g68
(lp1189
S'roil'
p1190
asS'EastStLouis'
p1191
(lp1192
S'esil'
p1193
asg74
(lp1194
S'chil'
p1195
asg77
(lp1196
S'auil'
p1197
asg80
(lp1198
S'ciil'
p1199
asg83
(lp1200
S'evil'
p1201
asg86
(lp1202
S'joil'
p1203
asS'OakPark'
p1204
(lp1205
S'opil'
p1206
asg92
(lp1207
S'peil'
p1208
asg95
(lp1209
S'spil'
p1210
asg98
(lp1211
S'quil'
p1212
assg101
(dp1213
g103
(lp1214
S'saga'
p1215
asg106
(lp1216
S'a1ga'
p1217
aS'a2ga'
p1218
asg110
(lp1219
S'auga'
p1220
assg113
(dp1221
g115
(lp1222
S'inin'
p1223
asS'FortWayne'
p1224
(lp1225
S'fwin'
p1226
asg121
(lp1227
S'hain'
p1228
asS'SouthBend'
p1229
(lp1230
S'sbin'
p1231
asg127
(lp1232
S'gain'
p1233
asg130
(lp1234
S'evin'
p1235
asS'TerreHaute'
p1236
(lp1237
S'thin'
p1238
assg136
(dp1239
S'DesMoines'
p1240
(lp1241
S'dmia'
p1242
asS'SiouxCity'
p1243
(lp1244
S'siia'
p1245
asg144
(lp1246
S'daia'
p1247
asg147
(lp1248
S'duia'
p1249
assg150
(dp1250
g152
(lp1251
S'phaz'
p1252
assg155
(dp1253
g157
(lp1254
S'brct'
p1255
asg160
(lp1256
S'wact'
p1257
asg163
(lp1258
S'hact'
p1259
aS'wrct'
p1260
asg167
(lp1261
S'mect'
p1262
asS'NewBritain'
p1263
(lp1264
S'nbct'
p1265
asS'NewHaven'
p1266
(lp1267
S'nhct'
p1268
assg176
(dp1269
g178
(lp1270
S'manh'
p1271
assg181
(dp1272
g183
(lp1273
S'trnj'
p1274
asS'AtlanticCity'
p1275
(lp1276
S'acnj'
p1277
asS'JerseyCity'
p1278
(lp1279
S'jcnj'
p1280
asg192
(lp1281
S'banj'
p1282
asg195
(lp1283
S'psnj'
p1284
asg198
(lp1285
S'nenj'
p1286
asg201
(lp1287
S'canj'
p1288
asg204
(lp1289
S'panj'
p1290
asg207
(lp1291
S'honj'
p1292
asS'EastOrange'
p1293
(lp1294
S'eonj'
p1295
asg213
(lp1296
S'elnj'
p1297
assg216
(dp1298
g218
(lp1299
S'gatx'
p1300
asg221
(lp1301
S'hotx'
p1302
asg224
(lp1303
S'datx'
p1304
asS'SanAntonio'
p1305
(lp1306
S'satx'
p1307
asS'ElPaso'
p1308
(lp1309
S'eptx'
p1310
asS'FortWorth'
p1311
(lp1312
S'fwtx'
p1313
asg236
(lp1314
S'autx'
p1315
assg239
(dp1316
g241
(lp1317
S'shla'
p1318
asS'NewOrleans'
p1319
(lp1320
S'nola'
p1321
assg247
(dp1322
g249
(lp1323
sg251
(lp1324
S'chnc'
p1325
assg254
(dp1326
g256
(lp1327
S'line'
p1328
asg259
(lp1329
S'omne'
p1330
assg262
(dp1331
g264
(lp1332
S'chtn'
p1333
asg267
(lp1334
S'kntn'
p1335
asg270
(lp1336
S'metn'
p1337
asg273
(lp1338
S'natn'
p1339
assg276
(dp1340
S'StatenIsland'
p1341
(lp1342
S'riny'
p1343
asg281
(lp1344
S'alny'
p1345
asg284
(lp1346
S'rony'
p1347
asS'NewYork'
p1348
(lp1349
sg289
(lp1350
S'pony'
p1351
asS'MountVernon'
p1352
(lp1353
sg294
(lp1354
S'bkny'
p1355
asg297
(lp1356
S'many'
p1357
asg300
(lp1358
S'auny'
p1359
asg303
(lp1360
S'elny'
p1361
asg306
(lp1362
S'yony'
p1363
asg309
(lp1364
S'trny'
p1365
asS'NiagaraFalls'
p1366
(lp1367
S'nfny'
p1368
asg315
(lp1369
S'biny'
p1370
asg318
(lp1371
S'utny'
p1372
asg321
(lp1373
S'bxny'
p1374
asg324
(lp1375
S'quny'
p1376
asg327
(lp1377
S'buny'
p1378
asg330
(lp1379
S'scny'
p1380
asg333
(lp1381
S'syny'
p1382
assg336
(dp1383
g338
(lp1384
S'lapa'
p1385
asg341
(lp1386
S'repa'
p1387
asg344
(lp1388
S'pipa'
p1389
asg347
(lp1390
S'alpa'
p1391
asg350
(lp1392
S'phpa'
p1393
asg353
(lp1394
S'mcpa'
p1395
asg356
(lp1396
S'hapa'
p1397
asg359
(lp1398
S'atpa'
p1399
asg362
(lp1400
S'wipa'
p1401
asg365
(lp1402
S'chpa'
p1403
asS'NewCastle'
p1404
(lp1405
S'ncpa'
p1406
asg371
(lp1407
S'scpa'
p1408
asg374
(lp1409
S'erpa'
p1410
asg377
(lp1411
S'wlpa'
p1412
asg380
(lp1413
S'yopa'
p1414
asg383
(lp1415
S'jopa'
p1416
assg386
(dp1417
g388
(lp1418
S'wori'
p1419
asg391
(lp1420
S'epri'
p1421
aS'prri'
p1422
asg395
(lp1423
S'pari'
p1424
assg398
(dp1425
g400
(lp1426
S'sewa'
p1427
asg403
(lp1428
S'spwa'
p1429
asg406
(lp1430
S'tawa'
p1431
assg409
(dp1432
g411
(lp1433
S'wide'
p1434
assg414
(dp1435
g416
(lp1436
S'wadc'
p1437
assg419
(dp1438
g421
(lp1439
sg423
(lp1440
S'suwi'
p1441
asg426
(lp1442
S'mawi'
p1443
asg429
(lp1444
S'oswi'
p1445
asg432
(lp1446
S'miwi'
p1447
asg435
(lp1448
S'rawi'
p1449
assg438
(dp1450
g440
(lp1451
S'chwv'
p1452
asg443
(lp1453
S'huwv'
p1454
assg446
(dp1455
g448
(lp1456
S'tuok'
p1457
asS'OklahomaCity'
p1458
(lp1459
S'ocok'
p1460
assg454
(dp1461
g456
(lp1462
S'mifl'
p1463
asg459
(lp1464
S'jafl'
p1465
asg462
(lp1466
S'tafl'
p1467
assg465
(dp1468
g467
(lp1469
S'pome'
p1470
assg470
(dp1471
g472
(lp1472
S'bamd'
p1473
assg475
(dp1474
g477
(lp1475
S'loma'
p1476
asg480
(lp1477
S'lyma'
p1478
asg483
(lp1479
S'cama'
p1480
asg486
(lp1481
S'quma'
p1482
asg489
(lp1483
S'spma'
p1484
asg492
(lp1485
S'lama'
p1486
asg495
(lp1487
S'tama'
p1488
asg498
(lp1489
S'boma'
p1490
asg501
(lp1491
S'nema'
p1492
asg504
(lp1493
S'hama'
p1494
asg507
(lp1495
S'woma'
p1496
asg510
(lp1497
S'homa'
p1498
asg513
(lp1499
S'sama'
p1500
asg516
(lp1501
S'mama'
p1502
asS'FallRiver'
p1503
(lp1504
S'frma'
p1505
asg522
(lp1506
S'bcma'
p1507
asg525
(lp1508
S'soma'
p1509
asg528
(lp1510
S'fima'
p1511
asg531
(lp1512
S'chma'
p1513
asS'NewBedford'
p1514
(lp1515
S'nbma'
p1516
assg537
(dp1517
g539
(lp1518
S'cooh'
p1519
asg542
(lp1520
S'cioh'
p1521
asg545
(lp1522
S'laoh'
p1523
asg548
(lp1524
S'daoh'
p1525
asg551
(lp1526
S'tooh'
p1527
asg554
(lp1528
S'caoh'
p1529
asg557
(lp1530
S'yooh'
p1531
asg560
(lp1532
S'cloh'
p1533
aS'choh'
p1534
aS'ecoh'
p1535
asg565
(lp1536
S'akoh'
p1537
asg568
(lp1538
S'spoh'
p1539
assg571
(dp1540
S'SaltLakeCity'
p1541
(lp1542
S'slut'
p1543
assg576
(dp1544
S'StLouis'
p1545
(lp1546
S'slmo'
p1547
asg581
(lp1548
S'j1mo'
p1549
aS'j2mo'
p1550
asS'StJoseph'
p1551
(lp1552
S'sjmo'
p1553
asS'KansasCity'
p1554
(lp1555
S'kcmo'
p1556
assg591
(dp1557
S'StPaul'
p1558
(lp1559
S'spmn'
p1560
asg596
(lp1561
S'dumn'
p1562
asg599
(lp1563
S'mimn'
p1564
assg602
(dp1565
g604
(lp1566
S'pomi'
p1567
asg607
(lp1568
S'demi'
p1569
asg610
(lp1570
S'lami'
p1571
asg613
(lp1572
S'flmi'
p1573
asS'GrandRapids'
p1574
(lp1575
S'grmi'
p1576
asS'BayCity'
p1577
(lp1578
S'bcmi'
p1579
asg622
(lp1580
S'sami'
p1581
assg625
(dp1582
g627
(lp1583
S'wiks'
p1584
asS'KansasCity'
p1585
(lp1586
S'kcks'
p1587
asg633
(lp1588
S'toks'
p1589
assg636
(dp1590
g638
(lp1591
S'bumt'
p1592
assg641
(dp1593
g643
(lp1594
S'chsc'
p1595
assg646
(dp1596
g648
(lp1597
S'coky'
p1598
asg651
(lp1599
S'neky'
p1600
asg654
(lp1601
S'luky'
p1602
assg657
(dp1603
g659
(lp1604
S'poor'
p1605
asssI1900
(dp1606
g2
(dp1607
g4
(lp1608
S'riva'
p1609
asg7
(lp1610
S'nova'
p1611
assg10
(dp1612
g12
(lp1613
sg15
(lp1614
S'deco'
p1615
assg18
(dp1616
S'LosAngeles'
p1617
(lp1618
S'laca'
p1619
asS'SanFrancisco'
p1620
(lp1621
S'sfca'
p1622
asS'SanDiego'
p1623
(lp1624
sg29
(lp1625
sS'SanJose'
p1626
(lp1627
sg35
(lp1628
sg38
(lp1629
sg41
(lp1630
sg44
(lp1631
S'oaca'
p1632
asS'LongBeach'
p1633
(lp1634
ssg50
(dp1635
g52
(lp1636
S'moal'
p1637
asg55
(lp1638
S'bial'
p1639
asg58
(lp1640
ssg61
(dp1641
S'LittleRock'
p1642
(lp1643
S'lrar'
p1644
assg66
(dp1645
g68
(lp1646
sS'EastStLouis'
p1647
(lp1648
sg74
(lp1649
S'chil'
p1650
asg77
(lp1651
sg80
(lp1652
sg83
(lp1653
S'evil'
p1654
asg86
(lp1655
sS'OakPark'
p1656
(lp1657
sg92
(lp1658
S'peil'
p1659
asg95
(lp1660
sg98
(lp1661
ssg101
(dp1662
g103
(lp1663
S'saga'
p1664
asg106
(lp1665
S'a1ga'
p1666
asg110
(lp1667
S'auga'
p1668
assg113
(dp1669
g115
(lp1670
S'inin'
p1671
asS'FortWayne'
p1672
(lp1673
S'fwin'
p1674
asg121
(lp1675
sS'SouthBend'
p1676
(lp1677
sg127
(lp1678
sg130
(lp1679
S'evin'
p1680
asS'TerreHaute'
p1681
(lp1682
ssg136
(dp1683
S'DesMoines'
p1684
(lp1685
S'dmia'
p1686
asS'SiouxCity'
p1687
(lp1688
sg144
(lp1689
sg147
(lp1690
ssg150
(dp1691
g152
(lp1692
ssg155
(dp1693
g157
(lp1694
S'brct'
p1695
asg160
(lp1696
S'wact'
p1697
asg163
(lp1698
S'hact'
p1699
asg167
(lp1700
sS'NewBritain'
p1701
(lp1702
sS'NewHaven'
p1703
(lp1704
S'nhct'
p1705
assg176
(dp1706
g178
(lp1707
S'manh'
p1708
assg181
(dp1709
g183
(lp1710
S'trnj'
p1711
asS'AtlanticCity'
p1712
(lp1713
sS'JerseyCity'
p1714
(lp1715
S'jcnj'
p1716
asg192
(lp1717
sg195
(lp1718
sg198
(lp1719
S'nenj'
p1720
asg201
(lp1721
S'canj'
p1722
asg204
(lp1723
S'panj'
p1724
asg207
(lp1725
S'honj'
p1726
asS'EastOrange'
p1727
(lp1728
sg213
(lp1729
S'elnj'
p1730
assg216
(dp1731
g218
(lp1732
sg221
(lp1733
S'hotx'
p1734
asg224
(lp1735
S'datx'
p1736
asS'SanAntonio'
p1737
(lp1738
S'satx'
p1739
asS'ElPaso'
p1740
(lp1741
sS'FortWorth'
p1742
(lp1743
sg236
(lp1744
ssg239
(dp1745
g241
(lp1746
sS'NewOrleans'
p1747
(lp1748
S'nola'
p1749
assg247
(dp1750
g249
(lp1751
sg251
(lp1752
ssg254
(dp1753
g256
(lp1754
S'line'
p1755
asg259
(lp1756
S'omne'
p1757
assg262
(dp1758
g264
(lp1759
sg267
(lp1760
sg270
(lp1761
S'metn'
p1762
asg273
(lp1763
S'natn'
p1764
assg276
(dp1765
S'StatenIsland'
p1766
(lp1767
S'riny'
p1768
asg281
(lp1769
S'alny'
p1770
asg284
(lp1771
S'rony'
p1772
asS'NewYork'
p1773
(lp1774
sg289
(lp1775
sS'MountVernon'
p1776
(lp1777
sg294
(lp1778
S'bkny'
p1779
asg297
(lp1780
S'many'
p1781
asg300
(lp1782
sg303
(lp1783
sg306
(lp1784
S'yony'
p1785
asg309
(lp1786
S'trny'
p1787
asS'NiagaraFalls'
p1788
(lp1789
sg315
(lp1790
S'biny'
p1791
asg318
(lp1792
S'utny'
p1793
asg321
(lp1794
S'bxny'
p1795
asg324
(lp1796
S'quny'
p1797
asg327
(lp1798
S'buny'
p1799
asg330
(lp1800
sg333
(lp1801
S'syny'
p1802
assg336
(dp1803
g338
(lp1804
S'lapa'
p1805
asg341
(lp1806
S'repa'
p1807
asg344
(lp1808
S'pipa'
p1809
asg347
(lp1810
sg350
(lp1811
S'phpa'
p1812
asg353
(lp1813
S'mcpa'
p1814
asg356
(lp1815
S'hapa'
p1816
asg359
(lp1817
S'atpa'
p1818
asg362
(lp1819
S'wipa'
p1820
asg365
(lp1821
sS'NewCastle'
p1822
(lp1823
sg371
(lp1824
S'scpa'
p1825
asg374
(lp1826
S'erpa'
p1827
asg377
(lp1828
sg380
(lp1829
sg383
(lp1830
ssg386
(dp1831
g388
(lp1832
sg391
(lp1833
S'prri'
p1834
asg395
(lp1835
S'pari'
p1836
assg398
(dp1837
g400
(lp1838
S'sewa'
p1839
asg403
(lp1840
sg406
(lp1841
ssg409
(dp1842
g411
(lp1843
S'wide'
p1844
assg414
(dp1845
g416
(lp1846
S'wadc'
p1847
assg419
(dp1848
g421
(lp1849
sg423
(lp1850
sg426
(lp1851
sg429
(lp1852
sg432
(lp1853
S'miwi'
p1854
asg435
(lp1855
ssg438
(dp1856
g440
(lp1857
sg443
(lp1858
ssg446
(dp1859
g448
(lp1860
sS'OklahomaCity'
p1861
(lp1862
ssg454
(dp1863
g456
(lp1864
sg459
(lp1865
sg462
(lp1866
ssg465
(dp1867
g467
(lp1868
S'pome'
p1869
assg470
(dp1870
g472
(lp1871
S'bamd'
p1872
assg475
(dp1873
g477
(lp1874
S'loma'
p1875
asg480
(lp1876
S'lyma'
p1877
asg483
(lp1878
S'cama'
p1879
asg486
(lp1880
sg489
(lp1881
S'spma'
p1882
asg492
(lp1883
S'lama'
p1884
asg495
(lp1885
sg498
(lp1886
S'boma'
p1887
asg501
(lp1888
sg504
(lp1889
sg507
(lp1890
S'woma'
p1891
asg510
(lp1892
S'homa'
p1893
asg513
(lp1894
sg516
(lp1895
sS'FallRiver'
p1896
(lp1897
S'frma'
p1898
asg522
(lp1899
sg525
(lp1900
S'soma'
p1901
asg528
(lp1902
sg531
(lp1903
sS'NewBedford'
p1904
(lp1905
S'nbma'
p1906
assg537
(dp1907
g539
(lp1908
S'cooh'
p1909
asg542
(lp1910
S'cioh'
p1911
asg545
(lp1912
sg548
(lp1913
S'daoh'
p1914
asg551
(lp1915
S'tooh'
p1916
asg554
(lp1917
S'caoh'
p1918
asg557
(lp1919
S'yooh'
p1920
asg560
(lp1921
S'cloh'
p1922
asg565
(lp1923
S'akoh'
p1924
asg568
(lp1925
ssg571
(dp1926
S'SaltLakeCity'
p1927
(lp1928
S'slut'
p1929
assg576
(dp1930
S'StLouis'
p1931
(lp1932
S'slmo'
p1933
asg581
(lp1934
sS'StJoseph'
p1935
(lp1936
S'sjmo'
p1937
asS'KansasCity'
p1938
(lp1939
S'kcmo'
p1940
assg591
(dp1941
S'StPaul'
p1942
(lp1943
S'spmn'
p1944
asg596
(lp1945
S'dumn'
p1946
asg599
(lp1947
S'mimn'
p1948
assg602
(dp1949
g604
(lp1950
sg607
(lp1951
S'demi'
p1952
asg610
(lp1953
sg613
(lp1954
sS'GrandRapids'
p1955
(lp1956
S'grmi'
p1957
asS'BayCity'
p1958
(lp1959
sg622
(lp1960
S'sami'
p1961
assg625
(dp1962
g627
(lp1963
sS'KansasCity'
p1964
(lp1965
S'kcks'
p1966
asg633
(lp1967
ssg636
(dp1968
g638
(lp1969
ssg641
(dp1970
g643
(lp1971
S'chsc'
p1972
assg646
(dp1973
g648
(lp1974
S'coky'
p1975
asg651
(lp1976
sg654
(lp1977
S'luky'
p1978
assg657
(dp1979
g659
(lp1980
S'poor'
p1981
asssI1910
(dp1982
g2
(dp1983
g4
(lp1984
S'riva'
p1985
asg7
(lp1986
S'nova'
p1987
assg10
(dp1988
g12
(lp1989
sg15
(lp1990
S'deco'
p1991
assg18
(dp1992
S'LosAngeles'
p1993
(lp1994
S'laca'
p1995
asS'SanFrancisco'
p1996
(lp1997
S'sfca'
p1998
asS'SanDiego'
p1999
(lp2000
S'sdca'
p2001
asg29
(lp2002
sS'SanJose'
p2003
(lp2004
sg35
(lp2005
S'paca'
p2006
asg38
(lp2007
sg41
(lp2008
S'glca'
p2009
asg44
(lp2010
sS'LongBeach'
p2011
(lp2012
S'lbca'
p2013
assg50
(dp2014
g52
(lp2015
sg55
(lp2016
S'bial'
p2017
asg58
(lp2018
ssg61
(dp2019
S'LittleRock'
p2020
(lp2021
ssg66
(dp2022
g68
(lp2023
sS'EastStLouis'
p2024
(lp2025
S'esil'
p2026
asg74
(lp2027
S'chil'
p2028
asg77
(lp2029
sg80
(lp2030
sg83
(lp2031
sg86
(lp2032
sS'OakPark'
p2033
(lp2034
sg92
(lp2035
S'peil'
p2036
asg95
(lp2037
sg98
(lp2038
ssg101
(dp2039
g103
(lp2040
S'saga'
p2041
asg106
(lp2042
S'a1ga'
p2043
asg110
(lp2044
ssg113
(dp2045
g115
(lp2046
S'inin'
p2047
asS'FortWayne'
p2048
(lp2049
S'fwin'
p2050
asg121
(lp2051
sS'SouthBend'
p2052
(lp2053
S'sbin'
p2054
asg127
(lp2055
S'gain'
p2056
asg130
(lp2057
S'evin'
p2058
asS'TerreHaute'
p2059
(lp2060
S'thin'
p2061
assg136
(dp2062
S'DesMoines'
p2063
(lp2064
S'dmia'
p2065
asS'SiouxCity'
p2066
(lp2067
sg144
(lp2068
sg147
(lp2069
ssg150
(dp2070
g152
(lp2071
S'phaz'
p2072
assg155
(dp2073
g157
(lp2074
S'brct'
p2075
asg160
(lp2076
S'wact'
p2077
asg163
(lp2078
S'hact'
p2079
asg167
(lp2080
sS'NewBritain'
p2081
(lp2082
sS'NewHaven'
p2083
(lp2084
S'nhct'
p2085
assg176
(dp2086
g178
(lp2087
S'manh'
p2088
assg181
(dp2089
g183
(lp2090
S'trnj'
p2091
asS'AtlanticCity'
p2092
(lp2093
sS'JerseyCity'
p2094
(lp2095
S'jcnj'
p2096
asg192
(lp2097
S'banj'
p2098
asg195
(lp2099
S'psnj'
p2100
asg198
(lp2101
S'nenj'
p2102
asg201
(lp2103
S'canj'
p2104
asg204
(lp2105
S'panj'
p2106
asg207
(lp2107
S'honj'
p2108
asS'EastOrange'
p2109
(lp2110
sg213
(lp2111
S'elnj'
p2112
assg216
(dp2113
g218
(lp2114
sg221
(lp2115
S'hotx'
p2116
asg224
(lp2117
S'datx'
p2118
asS'SanAntonio'
p2119
(lp2120
S'satx'
p2121
asS'ElPaso'
p2122
(lp2123
sS'FortWorth'
p2124
(lp2125
S'fwtx'
p2126
asg236
(lp2127
ssg239
(dp2128
g241
(lp2129
sS'NewOrleans'
p2130
(lp2131
S'nola'
p2132
assg247
(dp2133
g249
(lp2134
sg251
(lp2135
S'chnc'
p2136
assg254
(dp2137
g256
(lp2138
sg259
(lp2139
S'omne'
p2140
assg262
(dp2141
g264
(lp2142
sg267
(lp2143
sg270
(lp2144
S'metn'
p2145
asg273
(lp2146
S'natn'
p2147
assg276
(dp2148
S'StatenIsland'
p2149
(lp2150
S'riny'
p2151
asg281
(lp2152
S'alny'
p2153
asg284
(lp2154
S'rony'
p2155
asS'NewYork'
p2156
(lp2157
sg289
(lp2158
S'pony'
p2159
asS'MountVernon'
p2160
(lp2161
sg294
(lp2162
S'bkny'
p2163
asg297
(lp2164
S'many'
p2165
asg300
(lp2166
sg303
(lp2167
sg306
(lp2168
S'yony'
p2169
asg309
(lp2170
S'trny'
p2171
asS'NiagaraFalls'
p2172
(lp2173
sg315
(lp2174
sg318
(lp2175
S'utny'
p2176
asg321
(lp2177
S'bxny'
p2178
asg324
(lp2179
S'quny'
p2180
asg327
(lp2181
S'buny'
p2182
asg330
(lp2183
S'scny'
p2184
asg333
(lp2185
S'syny'
p2186
assg336
(dp2187
g338
(lp2188
sg341
(lp2189
S'repa'
p2190
asg344
(lp2191
S'pipa'
p2192
asg347
(lp2193
sg350
(lp2194
S'phpa'
p2195
asg353
(lp2196
sg356
(lp2197
S'hapa'
p2198
asg359
(lp2199
sg362
(lp2200
sg365
(lp2201
sS'NewCastle'
p2202
(lp2203
sg371
(lp2204
S'scpa'
p2205
asg374
(lp2206
S'erpa'
p2207
asg377
(lp2208
sg380
(lp2209
sg383
(lp2210
S'jopa'
p2211
assg386
(dp2212
g388
(lp2213
sg391
(lp2214
S'prri'
p2215
asg395
(lp2216
ssg398
(dp2217
g400
(lp2218
S'sewa'
p2219
asg403
(lp2220
S'spwa'
p2221
asg406
(lp2222
S'tawa'
p2223
assg409
(dp2224
g411
(lp2225
S'wide'
p2226
assg414
(dp2227
g416
(lp2228
S'wadc'
p2229
assg419
(dp2230
g421
(lp2231
sg423
(lp2232
sg426
(lp2233
sg429
(lp2234
sg432
(lp2235
S'miwi'
p2236
asg435
(lp2237
ssg438
(dp2238
g440
(lp2239
sg443
(lp2240
ssg446
(dp2241
g448
(lp2242
S'tuok'
p2243
asS'OklahomaCity'
p2244
(lp2245
S'ocok'
p2246
assg454
(dp2247
g456
(lp2248
sg459
(lp2249
S'afl'
p2250
asg462
(lp2251
S'afl'
p2252
aS'tfl'
p2253
assg465
(dp2254
g467
(lp2255
S'pome'
p2256
assg470
(dp2257
g472
(lp2258
S'bamd'
p2259
assg475
(dp2260
g477
(lp2261
S'loma'
p2262
asg480
(lp2263
S'lyma'
p2264
asg483
(lp2265
S'cama'
p2266
asg486
(lp2267
sg489
(lp2268
S'spma'
p2269
asg492
(lp2270
S'lama'
p2271
asg495
(lp2272
sg498
(lp2273
S'boma'
p2274
asg501
(lp2275
sg504
(lp2276
sg507
(lp2277
S'woma'
p2278
asg510
(lp2279
S'homa'
p2280
asg513
(lp2281
sg516
(lp2282
sS'FallRiver'
p2283
(lp2284
S'frma'
p2285
asg522
(lp2286
S'bcma'
p2287
asg525
(lp2288
S'soma'
p2289
asg528
(lp2290
sg531
(lp2291
sS'NewBedford'
p2292
(lp2293
S'nbma'
p2294
assg537
(dp2295
g539
(lp2296
S'cooh'
p2297
asg542
(lp2298
S'cioh'
p2299
asg545
(lp2300
sg548
(lp2301
S'daoh'
p2302
asg551
(lp2303
S'tooh'
p2304
asg554
(lp2305
S'caoh'
p2306
asg557
(lp2307
S'yooh'
p2308
asg560
(lp2309
S'cloh'
p2310
asg565
(lp2311
S'akoh'
p2312
asg568
(lp2313
ssg571
(dp2314
S'SaltLakeCity'
p2315
(lp2316
S'slut'
p2317
assg576
(dp2318
S'StLouis'
p2319
(lp2320
S'slmo'
p2321
asg581
(lp2322
sS'StJoseph'
p2323
(lp2324
S'sjmo'
p2325
asS'KansasCity'
p2326
(lp2327
S'kcmo'
p2328
assg591
(dp2329
S'StPaul'
p2330
(lp2331
S'spmn'
p2332
asg596
(lp2333
S'dumn'
p2334
asg599
(lp2335
S'mimn'
p2336
assg602
(dp2337
g604
(lp2338
sg607
(lp2339
S'demi'
p2340
asg610
(lp2341
sg613
(lp2342
sS'GrandRapids'
p2343
(lp2344
S'grmi'
p2345
asS'BayCity'
p2346
(lp2347
sg622
(lp2348
ssg625
(dp2349
g627
(lp2350
S'wiks'
p2351
asS'KansasCity'
p2352
(lp2353
S'kcks'
p2354
asg633
(lp2355
ssg636
(dp2356
g638
(lp2357
ssg641
(dp2358
g643
(lp2359
S'chsc'
p2360
assg646
(dp2361
g648
(lp2362
sg651
(lp2363
sg654
(lp2364
S'luky'
p2365
assg657
(dp2366
g659
(lp2367
S'poor'
p2368
asss.