(dp1
S'files'
p2
(dp3
S'_Users_marco_Code_django-rosetta_rosetta_models'
p4
(dp5
S'index'
p6
(dp7
S'html_filename'
p8
S'_Users_marco_Code_django-rosetta_rosetta_models.html'
p9
sS'name'
p10
S'/Users/marco/Code/django-rosetta/rosetta/models'
p11
sS'nums'
p12
ccopy_reg
_reconstructor
p13
(ccoverage.results
Numbers
p14
c__builtin__
object
p15
NtRp16
(dp17
S'n_files'
p18
I1
sS'n_branches'
p19
I0
sS'n_statements'
p20
I1
sS'n_excluded'
p21
I0
sS'n_partial_branches'
p22
I0
sS'n_missing'
p23
I0
sS'n_missing_branches'
p24
I0
sbssS'hash'
p25
S'\xbe/M&\x82\xc5rc8zbq\xfc\x01\r\xa0'
p26
ssS'_Users_marco_Code_django-rosetta_rosetta___init__'
p27
(dp28
g6
(dp29
S'html_filename'
p30
S'_Users_marco_Code_django-rosetta_rosetta___init__.html'
p31
sS'name'
p32
S'/Users/marco/Code/django-rosetta/rosetta/__init__'
p33
sS'nums'
p34
g13
(g14
g15
NtRp35
(dp36
g18
I1
sg19
I0
sg20
I3
sg21
I0
sg22
I0
sg23
I0
sg24
I0
sbssg25
S'\xe0\xea\xdeD\xe1O\xa8\xaa\xa5tw\x0c\x10:\xd3\x84'
p37
ssS'_Users_marco_Code_django-rosetta_rosetta_signals'
p38
(dp39
g6
(dp40
g8
S'_Users_marco_Code_django-rosetta_rosetta_signals.html'
p41
sg10
S'/Users/marco/Code/django-rosetta/rosetta/signals'
p42
sg12
g13
(g14
g15
NtRp43
(dp44
g18
I1
sg19
I0
sg20
I3
sg21
I0
sg22
I0
sg23
I0
sg24
I0
sbssg25
S'\xb2\xbf}4)Q\x95p\xa4r\xc9\xeep\x1f`\x16'
p45
ssS'_Users_marco_Code_django-rosetta_rosetta_urls'
p46
(dp47
g6
(dp48
g8
S'_Users_marco_Code_django-rosetta_rosetta_urls.html'
p49
sg10
S'/Users/marco/Code/django-rosetta/rosetta/urls'
p50
sg12
g13
(g14
g15
NtRp51
(dp52
g18
I1
sg19
I0
sg20
I5
sg21
I0
sg22
I0
sg23
I0
sg24
I0
sbssg25
S'\xb3t\x9b>\x8c\xb4*\xf3\xc1\xa9\xfa\x16v\xfb\x9aN'
p53
ssS'_Users_marco_Code_django-rosetta_rosetta_poutil'
p54
(dp55
g6
(dp56
S'html_filename'
p57
S'_Users_marco_Code_django-rosetta_rosetta_poutil.html'
p58
sS'name'
p59
S'/Users/marco/Code/django-rosetta/rosetta/poutil'
p60
sS'nums'
p61
g13
(g14
g15
NtRp62
(dp63
g18
I1
sg19
I72
sg20
I110
sg21
I0
sg22
I9
sg23
I49
sg24
I41
sbssg25
S']\xed\x01t\x91,|\x05\xcf\xdf\xcb>\xa7\xd4\xcc\x85'
p64
ssS'_Users_marco_Code_django-rosetta_rosetta_templatetags___init__'
p65
(dp66
g6
(dp67
g8
S'_Users_marco_Code_django-rosetta_rosetta_templatetags___init__.html'
p68
sg10
S'/Users/marco/Code/django-rosetta/rosetta/templatetags/__init__'
p69
sg12
g13
(g14
g15
NtRp70
(dp71
g18
I1
sg19
I0
sg20
I0
sg21
I0
sg22
I0
sg23
I0
sg24
I0
sbssg25
S'\xbf/\x83L\xc9/\xc0\x9a\xf0p\xa8h\xff\x10T5'
p72
ssS'_Users_marco_Code_django-rosetta_rosetta_conf_settings'
p73
(dp74
g6
(dp75
g8
S'_Users_marco_Code_django-rosetta_rosetta_conf_settings.html'
p76
sg10
S'/Users/marco/Code/django-rosetta/rosetta/conf/settings'
p77
sg12
g13
(g14
g15
NtRp78
(dp79
g18
I1
sg19
I0
sg20
I12
sg21
I0
sg22
I0
sg23
I0
sg24
I0
sbssg25
S'\x94\x7f\x8f4\x07\r7\xa0\xbe\xcb\xb8\xdf\x12\xd9w\xe0'
p80
ssS'_Users_marco_Code_django-rosetta_rosetta_views'
p81
(dp82
g6
(dp83
g57
S'_Users_marco_Code_django-rosetta_rosetta_views.html'
p84
sg59
S'/Users/marco/Code/django-rosetta/rosetta/views'
p85
sg61
g13
(g14
g15
NtRp86
(dp87
g18
I1
sg19
I114
sg20
I262
sg21
I0
sg22
I23
sg23
I49
sg24
I31
sbssg25
S"\xd91\xba|\x051\x13\x0e\x99\x16'\xbeFq(k"
p88
ssS'_Users_marco_Code_django-rosetta_rosetta_templatetags_rosetta'
p89
(dp90
g6
(dp91
g8
S'_Users_marco_Code_django-rosetta_rosetta_templatetags_rosetta.html'
p92
sg10
S'/Users/marco/Code/django-rosetta/rosetta/templatetags/rosetta'
p93
sg12
g13
(g14
g15
NtRp94
(dp95
g18
I1
sg19
I6
sg20
I59
sg21
I0
sg22
I1
sg23
I11
sg24
I1
sbssg25
S'\xfb:\xb3\x1fDl%:\x8e\xcd\x1c\xb0\xfe\xb7z\x03'
p96
ssS'_Users_marco_Code_django-rosetta_rosetta_storage'
p97
(dp98
g6
(dp99
g8
S'_Users_marco_Code_django-rosetta_rosetta_storage.html'
p100
sg10
S'/Users/marco/Code/django-rosetta/rosetta/storage'
p101
sg12
g13
(g14
g15
NtRp102
(dp103
g18
I1
sg19
I10
sg20
I67
sg21
I0
sg22
I3
sg23
I17
sg24
I5
sbssg25
S'\xbe\x10\x17\xe3\x88cO\x08\xfc r\xdb\x9e\xfa\x9c\xbc'
p104
ssS'_Users_marco_Code_django-rosetta_rosetta_conf___init__'
p105
(dp106
g6
(dp107
g8
S'_Users_marco_Code_django-rosetta_rosetta_conf___init__.html'
p108
sg10
S'/Users/marco/Code/django-rosetta/rosetta/conf/__init__'
p109
sg12
g13
(g14
g15
NtRp110
(dp111
g18
I1
sg19
I0
sg20
I0
sg21
I0
sg22
I0
sg23
I0
sg24
I0
sbssg25
S'\xbf/\x83L\xc9/\xc0\x9a\xf0p\xa8h\xff\x10T5'
p112
sssS'version'
p113
S'3.6'
p114
sS'settings'
p115
S'4\x1cS\xd4\xcd\xbb|\x1d\xae\x98\x9ezVu|\xba'
p116
sS'format'
p117
I1
s.