(dp1
VGDAL_INFO_SUCCESS
p2
Vv1/GDAL_INFO_SUCCESS
p3
sVPOSTGIS_DROP_TABLE_ERROR
p4
Vv1/POSTGIS_DROP_TABLE_ERROR
p5
sVGEOSERVER_LAYER_DELETED
p6
Vv1/GEOSERVER_LAYER_DELETED
p7
sVSIO_RASTER_READ_ERROR
p8
Vv1/SIO_RASTER_READ_ERROR
p9
sVGEOSERVER_CREATE_WORKSPACE_ERROR
p10
Vv1/GEOSERVER_CREATE_WORKSPACE_ERROR
p11
sVGEOSERVER_DATASTORE_UNAVAILABLE
p12
Vv1/GEOSERVER_DATASTORE_UNAVAILABLE
p13
sVCOG_TRANSFORM_ERROR
p14
Vv1/COG_TRANSFORM_ERROR
p15
sVGEOSERVER_INVALID_NAME_ERROR
p16
Vv1/GEOSERVER_INVALID_NAME_ERROR
p17
sVS3_ERROR
p18
Vv1/S3_ERROR
p19
sVPOSTGIS_LOAD_RECORDS_ERROR
p20
Vv1/POSTGIS_LOAD_RECORDS_ERROR
p21
sVSIO_FGDB_INVALID_ZIP_FILE_ERROR
p22
Vv1/SIO_FGDB_INVALID_ZIP_FILE_ERROR
p23
sVGEOSERVER_UNAVAILABLE
p24
Vv1/GEOSERVER_UNAVAILABLE
p25
sVSIO_INVALID_FILE_ERROR
p26
Vv1/SIO_INVALID_FILE_ERROR
p27
sVCOG_TRANSFORM_SUCCESS
p28
Vv1/COG_TRANSFORM_SUCCESS
p29
sVGEOSERVER_DELETE_FEATURETYPE_ERROR
p30
Vv1/GEOSERVER_DELETE_FEATURETYPE_ERROR
p31
sVSIO_IMPORT_SUCCESS
p32
Vv1/SIO_IMPORT_SUCCESS
p33
sVGEOSERVER_WORKSPACE_UNAVAILABLE
p34
Vv1/GEOSERVER_WORKSPACE_UNAVAILABLE
p35
sVGEOSERVER_LAYER_PUBLISHED
p36
Vv1/GEOSERVER_LAYER_PUBLISHED
p37
sVGEOSERVER_CREATE_DATASTORE_ERROR
p38
Vv1/GEOSERVER_CREATE_DATASTORE_ERROR
p39
sVSIO_SHP_MISMATCHED_GEOMETERY_TYPE_ERROR
p40
Vv1/SIO_SHP_MISMATCHED_GEOMETERY_TYPE_ERROR
p41
sVSIO_GEOJSON_INVALID_ATTRIBUTE_TYPE_ERROR
p42
Vv1/SIO_GEOJSON_INVALID_ATTRIBUTE_TYPE_ERROR
p43
sVGEOSERVER_LAYER_PUBLISH_ERROR
p44
Vv1/GEOSERVER_LAYER_PUBLISH_ERROR
p45
sVGEOSERVER_LAYER_UPDATED
p46
Vv1/GEOSERVER_LAYER_UPDATED
p47
sVGEOSERVER_UPDATE_FEATURETYPE_ERROR
p48
Vv1/GEOSERVER_UPDATE_FEATURETYPE_ERROR
p49
sVGEOSERVER_CREATE_FEATURETYPE_ERROR
p50
Vv1/GEOSERVER_CREATE_FEATURETYPE_ERROR
p51
sVSIO_GEOPKG_SCHEMA_MISSING_GEOM_ERROR
p52
Vv1/SIO_GEOPKG_SCHEMA_NO_GEOM_ERROR
p53
sVSIO_MISSING_PROJECTION_ERROR
p54
Vv1/SIO_MISSING_PROJECTION_ERROR
p55
sVNO_LAYERS_FOUND
p56
Vv1/NO_LAYERS_FOUND
p57
sS'_version'
p58
V0.18.2
p59
sVSIO_IMPORT_FAIL
p60
Vv1/SIO_IMPORT_FAIL
p61
sVGEOSERVER_PERMISSION_DENIED
p62
Vv1/GEOSERVER_PERMISSION_DENIED
p63
sVGDAL_INFO_ERROR
p64
Vv1/GDAL_INFO_ERROR
p65
sVNO_FILES_TO_PROCESS
p66
Vv1/NO_FILES_TO_PROCESS
p67
sVPOSTGIS_CREATE_TABLE_ERROR
p68
Vv1/POSTGIS_CREATE_TABLE_ERROR
p69
sVNOT_A_VALID_SPATIAL_FILE
p70
Vv1/NOT_A_VALID_SPATIAL_FILE
p71
sVSIO_INVALID_IMPORT_MSG_ERROR
p72
Vv1/SIO_INVALID_IMPORT_MSG_ERROR
p73
sVSIO_IMPORT_INFO
p74
Vv1/SIO_IMPORT_INFO
p75
s.